(lp0
ccopy_reg
_reconstructor
p1
(cmodels
ToBuyItem
p2
c__builtin__
object
p3
Ntp4
Rp5
(dp6
S'status'
p7
I00
sS'price'
p8
S'324'
p9
sS'heading'
p10
S'sdg b'
p11
sbag1
(cmodels
ToDoItem
p12
g3
Ntp13
Rp14
(dp15
g7
I00
sg10
S'afba'
p16
sbag1
(g12
g3
Ntp17
Rp18
(dp19
g7
I01
sg10
S'adbea'
p20
sbag1
(g12
g3
Ntp21
Rp22
(dp23
g7
I01
sg10
S'aerae'
p24
sba.